; Function Attrs: mustprogress uwtable
define internal noundef i32 @_ZL8auxwrapyP9lua_State(ptr noundef %0) #0 {
  %2 = tail call noundef ptr @_Z12lua_tothreadP9lua_Statei(ptr noundef %0, i32 noundef -10003)
  %3 = getelementptr inbounds i8, ptr %0, i64 8
  %4 = load ptr, ptr %3, align 8
  %5 = getelementptr inbounds i8, ptr %0, i64 16
  %6 = load ptr, ptr %5, align 8
  %7 = ptrtoint ptr %4 to i64
  %8 = ptrtoint ptr %6 to i64
  %9 = sub i64 %7, %8
  %10 = lshr exact i64 %9, 4
  %11 = trunc i64 %10 to i32
  %12 = tail call fastcc noundef i32 @_ZL9auxresumeP9lua_StateS0_i(ptr noundef %0, ptr noundef %2, i32 noundef %11)
  %13 = icmp eq i32 %12, -2
  br i1 %13, label %14, label %21

14:                                               ; preds = %1
  %15 = getelementptr inbounds i8, ptr %0, i64 24
  %16 = load ptr, ptr %15, align 8
  %17 = getelementptr inbounds i8, ptr %16, i64 3344
  %18 = load ptr, ptr %17, align 8
  %.not.i = icmp eq ptr %18, null
  br i1 %.not.i, label %_ZL15interruptThreadP9lua_StateS0_.exit, label %19

19:                                               ; preds = %14
  tail call void @_Z13luau_callhookP9lua_StatePFvS0_P9lua_DebugEPv(ptr noundef nonnull %0, ptr noundef nonnull %18, ptr noundef %2)
  br label %_ZL15interruptThreadP9lua_StateS0_.exit

_ZL15interruptThreadP9lua_StateS0_.exit:          ; preds = %14, %19
  %20 = tail call noundef i32 @_Z9lua_breakP9lua_State(ptr noundef nonnull %0)
  br label %_ZL13auxwrapfinishP9lua_Statei.exit

21:                                               ; preds = %1
  %22 = icmp slt i32 %12, 0
  br i1 %22, label %23, label %_ZL13auxwrapfinishP9lua_Statei.exit

23:                                               ; preds = %21
  %24 = tail call noundef i32 @_Z12lua_isstringP9lua_Statei(ptr noundef nonnull %0, i32 noundef -1)
  %.not.i12 = icmp eq i32 %24, 0
  br i1 %.not.i12, label %26, label %25

25:                                               ; preds = %23
  tail call void @_Z10luaL_whereP9lua_Statei(ptr noundef nonnull %0, i32 noundef 1)
  tail call void @_Z10lua_insertP9lua_Statei(ptr noundef nonnull %0, i32 noundef -2)
  tail call void @_Z10lua_concatP9lua_Statei(ptr noundef nonnull %0, i32 noundef 2)
  br label %26

26:                                               ; preds = %25, %23
  tail call void @_Z9lua_errorP9lua_State(ptr noundef nonnull %0) #3
  unreachable

_ZL13auxwrapfinishP9lua_Statei.exit:              ; preds = %21, %_ZL15interruptThreadP9lua_StateS0_.exit
  %.0 = phi i32 [ %20, %_ZL15interruptThreadP9lua_StateS0_.exit ], [ %12, %21 ]
  ret i32 %.0
}